target datalayout = "e-m:e-p270:32:32-p271:32:32-p272:64:64-i64:64-i128:128-f80:128-n8:16:32:64-S128"
target triple = "x86_64-pc-linux-gnu"

%struct.WOLFSSL = type <{ ptr, ptr, ptr, ptr, [48 x i8], [48 x i8], ptr, ptr, ptr, ptr, ptr, ptr, ptr, ptr, ptr, ptr, ptr, ptr, ptr, i32, [4 x i8], %struct.WOLFSSL_CIPHER, ptr, %struct.Ciphers, %struct.Ciphers, [8 x i8], %struct.Buffers, ptr, ptr, %struct.WOLFSSL_ALERT_HISTORY, %struct.WOLFSSL_ALERT, i32, i32, i32, i32, i32, i32, i32, i16, [2 x i8], i32, i8, %struct.RecordLayerHeader, %struct.MsgsReceived, %struct.ProtocolVersion, %struct.ProtocolVersion, %struct.CipherSpecs, [2 x i8], %struct.Keys, %struct.Options, ptr, i8, i8, i16, [10 x i16], i8, i8, i16, i16, [38 x i8], i32, i32, [4 x i8], ptr, i8, i8, [6 x i8], ptr, ptr, i16, i8, i8, i32, i8, [3 x i8], i32, %struct.OneTimeAuth, ptr }>
%struct.WOLFSSL_CIPHER = type { i8, i8, ptr }
%struct.Ciphers = type { ptr, ptr, ptr, ptr, i8, i8 }
%struct.Buffers = type { %struct.bufferStatic, %struct.bufferStatic, %struct.WOLFSSL_BUFFER_INFO, %struct.WOLFSSL_BUFFER_INFO, %struct.WOLFSSL_BUFFER_INFO, %struct.WOLFSSL_BUFFER_INFO, i32, i32, i8, i8, i8, i8, %struct.WOLFSSL_BUFFER_INFO, %struct.WOLFSSL_BUFFER_INFO, %struct.WOLFSSL_BUFFER_INFO, %struct.WOLFSSL_BUFFER_INFO, ptr, ptr, ptr, i8, i8, i32, i32, ptr, i32, [1 x ptr] }
%struct.bufferStatic = type { [5 x i8], ptr, i32, i32, i32, i8, i8 }
%struct.WOLFSSL_BUFFER_INFO = type { ptr, i32 }
%struct.WOLFSSL_ALERT_HISTORY = type { %struct.WOLFSSL_ALERT, %struct.WOLFSSL_ALERT }
%struct.WOLFSSL_ALERT = type { i32, i32 }
%struct.RecordLayerHeader = type { i8, i8, i8, [2 x i8] }
%struct.MsgsReceived = type { i32 }
%struct.ProtocolVersion = type { i8, i8 }
%struct.CipherSpecs = type { i16, i16, i16, i16, i8, i8, i8, i8, i8, i8, i8, i8 }
%struct.Keys = type { [64 x i8], [64 x i8], [32 x i8], [32 x i8], [16 x i8], [16 x i8], [8 x i8], [12 x i8], [12 x i8], i32, i32, i32, i32, i32, i32, i8, i8, i8, i8 }
%struct.Options = type { i64, i64, i8, i8, i8, i8, i8, i8, i8, i8, i8, i8, i8, i8, i8, i8, i8, i8, i8, i8, i8, i8, i8, i16, i16, i16, i16, i16, i8 }
%struct.OneTimeAuth = type { ptr, i8 }

; Function Attrs: nounwind uwtable
define void @FreeKey(ptr noundef %0, i32 noundef %1, ptr noundef %2) #0 {
  %4 = alloca ptr, align 8
  %5 = alloca i32, align 4
  %6 = alloca ptr, align 8
  %7 = alloca ptr, align 8
  store ptr %0, ptr %4, align 8, !tbaa !3
  store i32 %1, ptr %5, align 4, !tbaa !47
  store ptr %2, ptr %6, align 8, !tbaa !59
  %8 = load ptr, ptr %4, align 8, !tbaa !3
  %9 = icmp ne ptr %8, null
  br i1 %9, label %10, label %43

10:                                               ; preds = %3
  %11 = load ptr, ptr %6, align 8, !tbaa !59
  %12 = icmp ne ptr %11, null
  br i1 %12, label %13, label %43

13:                                               ; preds = %10
  %14 = load ptr, ptr %6, align 8, !tbaa !59
  %15 = load ptr, ptr %14, align 8, !tbaa !59
  %16 = icmp ne ptr %15, null
  br i1 %16, label %17, label %43

17:                                               ; preds = %13
  %18 = load i32, ptr %5, align 4, !tbaa !47
  switch i32 %18, label %31 [
    i32 10, label %19
    i32 37, label %23
    i32 15, label %27
  ]

19:                                               ; preds = %17
  %20 = load ptr, ptr %6, align 8, !tbaa !59
  %21 = load ptr, ptr %20, align 8, !tbaa !59
  %22 = call i32 @wc_FreeRsaKey(ptr noundef %21)
  br label %32

23:                                               ; preds = %17
  %24 = load ptr, ptr %6, align 8, !tbaa !59
  %25 = load ptr, ptr %24, align 8, !tbaa !59
  %26 = call i32 @wc_ecc_free(ptr noundef %25)
  br label %32

27:                                               ; preds = %17
  %28 = load ptr, ptr %6, align 8, !tbaa !59
  %29 = load ptr, ptr %28, align 8, !tbaa !59
  %30 = call i32 @wc_FreeDhKey(ptr noundef %29)
  br label %32

31:                                               ; preds = %17
  br label %32

32:                                               ; preds = %31, %27, %23, %19
  br label %33

33:                                               ; preds = %32
  call void @llvm.lifetime.start.p0(i64 8, ptr %7) #9
  %34 = load ptr, ptr %6, align 8, !tbaa !59
  %35 = load ptr, ptr %34, align 8, !tbaa !59
  store ptr %35, ptr %7, align 8, !tbaa !59
  %36 = load ptr, ptr %7, align 8, !tbaa !59
  %37 = icmp ne ptr %36, null
  br i1 %37, label %38, label %40

38:                                               ; preds = %33
  %39 = load ptr, ptr %7, align 8, !tbaa !59
  call void @wolfSSL_Free(ptr noundef %39)
  br label %40

40:                                               ; preds = %38, %33
  call void @llvm.lifetime.end.p0(i64 8, ptr %7) #9
  br label %41

41:                                               ; preds = %40
  %42 = load ptr, ptr %6, align 8, !tbaa !59
  store ptr null, ptr %42, align 8, !tbaa !59
  br label %43

43:                                               ; preds = %41, %13, %10, %3
  ret void
}

; Function Attrs: nounwind uwtable
define void @FreeKeyExchange(ptr noundef %0) #0 {
  %2 = alloca ptr, align 8
  %3 = alloca ptr, align 8
  %4 = alloca ptr, align 8
  store ptr %0, ptr %2, align 8, !tbaa !3
  %5 = load ptr, ptr %2, align 8, !tbaa !3
  %6 = getelementptr inbounds nuw %struct.WOLFSSL, ptr %5, i32 0, i32 26
  %7 = getelementptr inbounds nuw %struct.Buffers, ptr %6, i32 0, i32 4
  %8 = getelementptr inbounds nuw %struct.WOLFSSL_BUFFER_INFO, ptr %7, i32 0, i32 0
  %9 = load ptr, ptr %8, align 16, !tbaa !243
  %10 = icmp ne ptr %9, null
  br i1 %10, label %11, label %32

11:                                               ; preds = %1
  br label %12

12:                                               ; preds = %11
  call void @llvm.lifetime.start.p0(i64 8, ptr %3) #9
  %13 = load ptr, ptr %2, align 8, !tbaa !3
  %14 = getelementptr inbounds nuw %struct.WOLFSSL, ptr %13, i32 0, i32 26
  %15 = getelementptr inbounds nuw %struct.Buffers, ptr %14, i32 0, i32 4
  %16 = getelementptr inbounds nuw %struct.WOLFSSL_BUFFER_INFO, ptr %15, i32 0, i32 0
  %17 = load ptr, ptr %16, align 16, !tbaa !243
  store ptr %17, ptr %3, align 8, !tbaa !59
  %18 = load ptr, ptr %3, align 8, !tbaa !59
  %19 = icmp ne ptr %18, null
  br i1 %19, label %20, label %22

20:                                               ; preds = %12
  %21 = load ptr, ptr %3, align 8, !tbaa !59
  call void @wolfSSL_Free(ptr noundef %21)
  br label %22

22:                                               ; preds = %20, %12
  call void @llvm.lifetime.end.p0(i64 8, ptr %3) #9
  br label %23

23:                                               ; preds = %22
  %24 = load ptr, ptr %2, align 8, !tbaa !3
  %25 = getelementptr inbounds nuw %struct.WOLFSSL, ptr %24, i32 0, i32 26
  %26 = getelementptr inbounds nuw %struct.Buffers, ptr %25, i32 0, i32 4
  %27 = getelementptr inbounds nuw %struct.WOLFSSL_BUFFER_INFO, ptr %26, i32 0, i32 0
  store ptr null, ptr %27, align 16, !tbaa !243
  %28 = load ptr, ptr %2, align 8, !tbaa !3
  %29 = getelementptr inbounds nuw %struct.WOLFSSL, ptr %28, i32 0, i32 26
  %30 = getelementptr inbounds nuw %struct.Buffers, ptr %29, i32 0, i32 4
  %31 = getelementptr inbounds nuw %struct.WOLFSSL_BUFFER_INFO, ptr %30, i32 0, i32 1
  store i32 0, ptr %31, align 8, !tbaa !244
  br label %32

32:                                               ; preds = %23, %1
  %33 = load ptr, ptr %2, align 8, !tbaa !3
  %34 = getelementptr inbounds nuw %struct.WOLFSSL, ptr %33, i32 0, i32 26
  %35 = getelementptr inbounds nuw %struct.Buffers, ptr %34, i32 0, i32 5
  %36 = getelementptr inbounds nuw %struct.WOLFSSL_BUFFER_INFO, ptr %35, i32 0, i32 0
  %37 = load ptr, ptr %36, align 16, !tbaa !245
  %38 = icmp ne ptr %37, null
  br i1 %38, label %39, label %76

39:                                               ; preds = %32
  %40 = load ptr, ptr %2, align 8, !tbaa !3
  %41 = getelementptr inbounds nuw %struct.WOLFSSL, ptr %40, i32 0, i32 49
  %42 = getelementptr inbounds nuw %struct.Options, ptr %41, i32 0, i32 1
  %43 = load i64, ptr %42, align 8
  %44 = lshr i64 %43, 40
  %45 = and i64 %44, 1
  %46 = trunc i64 %45 to i16
  %47 = icmp ne i16 %46, 0
  br i1 %47, label %61, label %48

48:                                               ; preds = %39
  br label %49

49:                                               ; preds = %48
  call void @llvm.lifetime.start.p0(i64 8, ptr %4) #9
  %50 = load ptr, ptr %2, align 8, !tbaa !3
  %51 = getelementptr inbounds nuw %struct.WOLFSSL, ptr %50, i32 0, i32 26
  %52 = getelementptr inbounds nuw %struct.Buffers, ptr %51, i32 0, i32 5
  %53 = getelementptr inbounds nuw %struct.WOLFSSL_BUFFER_INFO, ptr %52, i32 0, i32 0
  %54 = load ptr, ptr %53, align 16, !tbaa !245
  store ptr %54, ptr %4, align 8, !tbaa !59
  %55 = load ptr, ptr %4, align 8, !tbaa !59
  %56 = icmp ne ptr %55, null
  br i1 %56, label %57, label %59

57:                                               ; preds = %49
  %58 = load ptr, ptr %4, align 8, !tbaa !59
  call void @wolfSSL_Free(ptr noundef %58)
  br label %59

59:                                               ; preds = %57, %49
  call void @llvm.lifetime.end.p0(i64 8, ptr %4) #9
  br label %60

60:                                               ; preds = %59
  br label %61

61:                                               ; preds = %60, %39
  %62 = load ptr, ptr %2, align 8, !tbaa !3
  %63 = getelementptr inbounds nuw %struct.WOLFSSL, ptr %62, i32 0, i32 26
  %64 = getelementptr inbounds nuw %struct.Buffers, ptr %63, i32 0, i32 5
  %65 = getelementptr inbounds nuw %struct.WOLFSSL_BUFFER_INFO, ptr %64, i32 0, i32 0
  store ptr null, ptr %65, align 16, !tbaa !245
  %66 = load ptr, ptr %2, align 8, !tbaa !3
  %67 = getelementptr inbounds nuw %struct.WOLFSSL, ptr %66, i32 0, i32 26
  %68 = getelementptr inbounds nuw %struct.Buffers, ptr %67, i32 0, i32 5
  %69 = getelementptr inbounds nuw %struct.WOLFSSL_BUFFER_INFO, ptr %68, i32 0, i32 1
  store i32 0, ptr %69, align 8, !tbaa !246
  %70 = load ptr, ptr %2, align 8, !tbaa !3
  %71 = getelementptr inbounds nuw %struct.WOLFSSL, ptr %70, i32 0, i32 49
  %72 = getelementptr inbounds nuw %struct.Options, ptr %71, i32 0, i32 1
  %73 = load i64, ptr %72, align 8
  %74 = and i64 %73, -1099511627777
  %75 = or i64 %74, 0
  store i64 %75, ptr %72, align 8
  br label %76

76:                                               ; preds = %61, %32
  %77 = load ptr, ptr %2, align 8, !tbaa !3
  %78 = load ptr, ptr %2, align 8, !tbaa !3
  %79 = getelementptr inbounds nuw %struct.WOLFSSL, ptr %78, i32 0, i32 19
  %80 = load i32, ptr %79, align 8, !tbaa !247
  %81 = load ptr, ptr %2, align 8, !tbaa !3
  %82 = getelementptr inbounds nuw %struct.WOLFSSL, ptr %81, i32 0, i32 18
  call void @FreeKey(ptr noundef %77, i32 noundef %80, ptr noundef %82)
  %83 = load ptr, ptr %2, align 8, !tbaa !3
  %84 = load ptr, ptr %2, align 8, !tbaa !3
  %85 = getelementptr inbounds nuw %struct.WOLFSSL, ptr %84, i32 0, i32 26
  %86 = getelementptr inbounds nuw %struct.Buffers, ptr %85, i32 0, i32 16
  call void @FreeKey(ptr noundef %83, i32 noundef 15, ptr noundef %86)
  ret void
}