; Function Attrs: nounwind uwtable
define void @FreeKeyExchange(ptr noundef captures(none) %0) local_unnamed_addr #5 {
  %2 = getelementptr inbounds nuw i8, ptr %0, i64 448
  %3 = load ptr, ptr %2, align 16, !tbaa !200
  %.not = icmp eq ptr %3, null
  br i1 %.not, label %6, label %4

4:                                                ; preds = %1
  tail call void @wolfSSL_Free(ptr noundef nonnull %3) #26
  store ptr null, ptr %2, align 16, !tbaa !200
  %5 = getelementptr inbounds nuw i8, ptr %0, i64 456
  store i32 0, ptr %5, align 8, !tbaa !201
  br label %6

6:                                                ; preds = %4, %1
  %7 = getelementptr inbounds nuw i8, ptr %0, i64 464
  %8 = load ptr, ptr %7, align 16, !tbaa !202
  %.not20 = icmp eq ptr %8, null
  br i1 %.not20, label %18, label %9

9:                                                ; preds = %6
  %10 = getelementptr inbounds nuw i8, ptr %0, i64 1024
  %11 = load i64, ptr %10, align 8
  %12 = and i64 %11, 1099511627776
  %.not21 = icmp eq i64 %12, 0
  br i1 %.not21, label %13, label %14

13:                                               ; preds = %9
  tail call void @wolfSSL_Free(ptr noundef nonnull %8) #26
  %.pre = load i64, ptr %10, align 8
  br label %14

14:                                               ; preds = %13, %9
  %15 = phi i64 [ %.pre, %13 ], [ %11, %9 ]
  store ptr null, ptr %7, align 16, !tbaa !202
  %16 = getelementptr inbounds nuw i8, ptr %0, i64 472
  store i32 0, ptr %16, align 8, !tbaa !203
  %17 = and i64 %15, -1099511627777
  store i64 %17, ptr %10, align 8
  br label %18

18:                                               ; preds = %6, %14
  %19 = getelementptr inbounds nuw i8, ptr %0, i64 224
  %20 = load ptr, ptr %19, align 8, !tbaa !196
  %.not.i = icmp eq ptr %20, null
  br i1 %.not.i, label %33, label %21

21:                                               ; preds = %18
  %22 = getelementptr inbounds nuw i8, ptr %0, i64 232
  %23 = load i32, ptr %22, align 8, !tbaa !204
  switch i32 %23, label %.thread.i [
    i32 10, label %24
    i32 37, label %26
    i32 15, label %28
  ]

24:                                               ; preds = %21
  %25 = tail call i32 @wc_FreeRsaKey(ptr noundef nonnull %20) #26
  br label %30

26:                                               ; preds = %21
  %27 = tail call i32 @wc_ecc_free(ptr noundef nonnull %20) #26
  br label %30

28:                                               ; preds = %21
  %29 = tail call i32 @wc_FreeDhKey(ptr noundef nonnull %20) #26
  br label %30

30:                                               ; preds = %28, %26, %24
  %.pr.i = load ptr, ptr %19, align 8, !tbaa !196
  %.not13.i = icmp eq ptr %.pr.i, null
  br i1 %.not13.i, label %32, label %.thread.i

.thread.i:                                        ; preds = %30, %21
  %31 = phi ptr [ %.pr.i, %30 ], [ %20, %21 ]
  tail call void @wolfSSL_Free(ptr noundef nonnull %31) #26
  br label %32

32:                                               ; preds = %.thread.i, %30
  store ptr null, ptr %19, align 8, !tbaa !196
  br label %33

33:                                               ; preds = %32, %18
  %34 = getelementptr inbounds nuw i8, ptr %0, i64 560
  %35 = load ptr, ptr %34, align 8, !tbaa !196
  %.not.i22 = icmp eq ptr %35, null
  br i1 %.not.i22, label %FreeKey.exit26, label %36

36:                                               ; preds = %33
  %37 = tail call i32 @wc_FreeDhKey(ptr noundef nonnull %35) #26
  %.pr.i23 = load ptr, ptr %34, align 8, !tbaa !196
  %.not13.i24 = icmp eq ptr %.pr.i23, null
  br i1 %.not13.i24, label %38, label %.thread.i25

.thread.i25:                                      ; preds = %36
  tail call void @wolfSSL_Free(ptr noundef nonnull %.pr.i23) #26
  br label %38

38:                                               ; preds = %.thread.i25, %36
  store ptr null, ptr %34, align 8, !tbaa !196
  br label %FreeKey.exit26

FreeKey.exit26:                                   ; preds = %33, %38
  ret void
}